target datalayout = "e-m:e-p270:32:32-p271:32:32-p272:64:64-i64:64-i128:128-f80:128-n8:16:32:64-S128"
target triple = "x86_64-pc-linux-gnu"

; Function Attrs: mustprogress nounwind uwtable
define internal noundef ptr @_ZL26stbi__resample_row_genericPhS_S_ii(ptr noundef %0, ptr noundef %1, ptr noundef %2, i32 noundef %3, i32 noundef %4) #0 {
  %6 = alloca ptr, align 8
  %7 = alloca ptr, align 8
  %8 = alloca ptr, align 8
  %9 = alloca i32, align 4
  %10 = alloca i32, align 4
  %11 = alloca i32, align 4
  %12 = alloca i32, align 4
  store ptr %0, ptr %6, align 8, !tbaa !5
  store ptr %1, ptr %7, align 8, !tbaa !5
  store ptr %2, ptr %8, align 8, !tbaa !5
  store i32 %3, ptr %9, align 4, !tbaa !11
  store i32 %4, ptr %10, align 4, !tbaa !11
  call void @llvm.lifetime.start.p0(i64 4, ptr %11) #22
  call void @llvm.lifetime.start.p0(i64 4, ptr %12) #22
  store i32 0, ptr %11, align 4, !tbaa !11
  br label %13

13:                                               ; preds = %40, %5
  %14 = load i32, ptr %11, align 4, !tbaa !11
  %15 = load i32, ptr %9, align 4, !tbaa !11
  %16 = icmp slt i32 %14, %15
  br i1 %16, label %17, label %43

17:                                               ; preds = %13
  store i32 0, ptr %12, align 4, !tbaa !11
  br label %18

18:                                               ; preds = %36, %17
  %19 = load i32, ptr %12, align 4, !tbaa !11
  %20 = load i32, ptr %10, align 4, !tbaa !11
  %21 = icmp slt i32 %19, %20
  br i1 %21, label %22, label %39

22:                                               ; preds = %18
  %23 = load ptr, ptr %7, align 8, !tbaa !5
  %24 = load i32, ptr %11, align 4, !tbaa !11
  %25 = sext i32 %24 to i64
  %26 = getelementptr inbounds i8, ptr %23, i64 %25
  %27 = load i8, ptr %26, align 1, !tbaa !31
  %28 = load ptr, ptr %6, align 8, !tbaa !5
  %29 = load i32, ptr %11, align 4, !tbaa !11
  %30 = load i32, ptr %10, align 4, !tbaa !11
  %31 = mul nsw i32 %29, %30
  %32 = load i32, ptr %12, align 4, !tbaa !11
  %33 = add nsw i32 %31, %32
  %34 = sext i32 %33 to i64
  %35 = getelementptr inbounds i8, ptr %28, i64 %34
  store i8 %27, ptr %35, align 1, !tbaa !31
  br label %36

36:                                               ; preds = %22
  %37 = load i32, ptr %12, align 4, !tbaa !11
  %38 = add nsw i32 %37, 1
  store i32 %38, ptr %12, align 4, !tbaa !11
  br label %18, !llvm.loop !252

39:                                               ; preds = %18
  br label %40

40:                                               ; preds = %39
  %41 = load i32, ptr %11, align 4, !tbaa !11
  %42 = add nsw i32 %41, 1
  store i32 %42, ptr %11, align 4, !tbaa !11
  br label %13, !llvm.loop !253

43:                                               ; preds = %13
  %44 = load ptr, ptr %6, align 8, !tbaa !5
  call void @llvm.lifetime.end.p0(i64 4, ptr %12) #22
  call void @llvm.lifetime.end.p0(i64 4, ptr %11) #22
  ret ptr %44
}